; Function Attrs: mustprogress uwtable
define void @_ZN5folly11AsyncSocket20invokeConnectAttemptEv(ptr noundef nonnull align 8 dereferenceable(1113) %this) unnamed_addr #2 align 2 personality ptr @__gxx_personality_v0 {
entry:
  %ref.tmp.i = alloca %"class.folly::Function.358", align 16
  %agg.tmp.i = alloca %"class.folly::Optional.356", align 4
  %ref.tmp5 = alloca %"class.google::LogMessage", align 8
  %0 = load ptr, ptr @_ZZN5folly11AsyncSocket20invokeConnectAttemptEvE8vlocal__, align 8, !tbaa !24
  %cmp = icmp eq ptr %0, null
  br i1 %cmp, label %cond.true, label %cond.end

cond.true:                                        ; preds = %entry
  %call = tail call noundef zeroext i1 @_ZN6google11InitVLOG3__EPNS_8SiteFlagEPiPKci(ptr noundef nonnull @_ZZN5folly11AsyncSocket20invokeConnectAttemptEvE8vlocal__, ptr noundef nonnull @_ZN3fLI7FLAGS_vE, ptr noundef nonnull @.str.3, i32 noundef 5)
  br i1 %call, label %cond.false4, label %cleanup.done24

cond.end:                                         ; preds = %entry
  %1 = load i32, ptr %0, align 4, !tbaa !16
  %cmp2 = icmp sgt i32 %1, 4
  br i1 %cmp2, label %cond.false4, label %cleanup.done24

cond.false4:                                      ; preds = %cond.end, %cond.true
  call void @llvm.lifetime.start.p0(i64 96, ptr nonnull %ref.tmp5) #41
  call void @_ZN6google10LogMessageC1EPKci(ptr noundef nonnull align 8 dereferenceable(96) %ref.tmp5, ptr noundef nonnull @.str.3, i32 noundef 4286)
  %call7 = invoke noundef nonnull align 8 dereferenceable(8) ptr @_ZN6google10LogMessage6streamEv(ptr noundef nonnull align 8 dereferenceable(96) %ref.tmp5)
          to label %invoke.cont unwind label %lpad

invoke.cont:                                      ; preds = %cond.false4
  %call1.i40 = invoke noundef nonnull align 8 dereferenceable(8) ptr @_ZSt16__ostream_insertIcSt11char_traitsIcEERSt13basic_ostreamIT_T0_ES6_PKS3_l(ptr noundef nonnull align 8 dereferenceable(8) %call7, ptr noundef nonnull @.str.278, i64 noundef 17)
          to label %invoke.cont8 unwind label %lpad

invoke.cont8:                                     ; preds = %invoke.cont
  %call.i41 = invoke noundef nonnull align 8 dereferenceable(8) ptr @_ZNSo9_M_insertIPKvEERSoT_(ptr noundef nonnull align 8 dereferenceable(8) %call7, ptr noundef nonnull %this)
          to label %invoke.cont10 unwind label %lpad

invoke.cont10:                                    ; preds = %invoke.cont8
  %call1.i43 = invoke noundef nonnull align 8 dereferenceable(8) ptr @_ZSt16__ostream_insertIcSt11char_traitsIcEERSt13basic_ostreamIT_T0_ES6_PKS3_l(ptr noundef nonnull align 8 dereferenceable(8) %call.i41, ptr noundef nonnull @.str.40, i64 noundef 5)
          to label %invoke.cont12 unwind label %lpad

invoke.cont12:                                    ; preds = %invoke.cont10
  %call1.i.i45 = invoke noundef nonnull align 8 dereferenceable(8) ptr @_ZSt16__ostream_insertIcSt11char_traitsIcEERSt13basic_ostreamIT_T0_ES6_PKS3_l(ptr noundef nonnull align 8 dereferenceable(8) %call.i41, ptr noundef nonnull @.str.42, i64 noundef 21)
          to label %call1.i.i.noexc unwind label %lpad

call1.i.i.noexc:                                  ; preds = %invoke.cont12
  %fd_ = getelementptr inbounds i8, ptr %this, i64 220
  %2 = load i32, ptr %fd_, align 4, !tbaa !124
  %call1.i46 = invoke noundef nonnull align 8 dereferenceable(8) ptr @_ZNSolsEi(ptr noundef nonnull align 8 dereferenceable(8) %call.i41, i32 noundef %2)
          to label %call1.i.noexc unwind label %lpad

call1.i.noexc:                                    ; preds = %call1.i.i.noexc
  %call1.i5.i47 = invoke noundef nonnull align 8 dereferenceable(8) ptr @_ZSt16__ostream_insertIcSt11char_traitsIcEERSt13basic_ostreamIT_T0_ES6_PKS3_l(ptr noundef nonnull align 8 dereferenceable(8) %call1.i46, ptr noundef nonnull @.str.38, i64 noundef 1)
          to label %invoke.cont14 unwind label %lpad

invoke.cont14:                                    ; preds = %call1.i.noexc
  %call1.i50 = invoke noundef nonnull align 8 dereferenceable(8) ptr @_ZSt16__ostream_insertIcSt11char_traitsIcEERSt13basic_ostreamIT_T0_ES6_PKS3_l(ptr noundef nonnull align 8 dereferenceable(8) %call.i41, ptr noundef nonnull @.str.294, i64 noundef 18)
          to label %cleanup.action unwind label %lpad

cleanup.action:                                   ; preds = %invoke.cont14
  call void @_ZN6google10LogMessageD1Ev(ptr noundef nonnull align 8 dereferenceable(96) %ref.tmp5) #41
  call void @llvm.lifetime.end.p0(i64 96, ptr nonnull %ref.tmp5) #41
  br label %cleanup.done24

cleanup.done24:                                   ; preds = %cleanup.action, %cond.end, %cond.true
  %lifecycleObservers_ = getelementptr inbounds i8, ptr %this, i64 848
  %3 = load i64, ptr %lifecycleObservers_, align 8, !tbaa !161
  %u.i.i = getelementptr inbounds i8, ptr %this, i64 856
  %4 = load ptr, ptr %u.i.i, align 8
  %tobool.not5.i.i = icmp slt i64 %3, 0
  %cond.i.i = select i1 %tobool.not5.i.i, ptr %4, ptr %u.i.i
  %and.i.i.i = and i64 %3, 4611686018427387903
  %add.ptr.i = getelementptr inbounds ptr, ptr %cond.i.i, i64 %and.i.i.i
  %cmp30.not57 = icmp eq i64 %and.i.i.i, 0
  br i1 %cmp30.not57, label %_ZN5folly8FunctionIFvPNS_28AsyncSocketObserverInterfaceEPNS_11AsyncSocketEEEC2EOS6_.exit.i.i.i, label %for.body

lpad:                                             ; preds = %invoke.cont14, %call1.i.noexc, %call1.i.i.noexc, %invoke.cont12, %invoke.cont10, %invoke.cont8, %invoke.cont, %cond.false4
  %5 = landingpad { ptr, i32 }
          cleanup
  call void @_ZN6google10LogMessageD1Ev(ptr noundef nonnull align 8 dereferenceable(96) %ref.tmp5) #41
  call void @llvm.lifetime.end.p0(i64 96, ptr nonnull %ref.tmp5) #41
  resume { ptr, i32 } %5

for.body:                                         ; preds = %cleanup.done24, %for.body
  %__begin1.058 = phi ptr [ %incdec.ptr, %for.body ], [ %cond.i.i, %cleanup.done24 ]
  %6 = load ptr, ptr %__begin1.058, align 8, !tbaa !137
  %vtable = load ptr, ptr %6, align 8, !tbaa !7
  %vfn = getelementptr inbounds i8, ptr %vtable, i64 24
  %7 = load ptr, ptr %vfn, align 8
  call void %7(ptr noundef nonnull align 8 dereferenceable(8) %6, ptr noundef nonnull %this) #41
  %incdec.ptr = getelementptr inbounds i8, ptr %__begin1.058, i64 8
  %cmp30.not = icmp eq ptr %incdec.ptr, %add.ptr.i
  br i1 %cmp30.not, label %_ZN5folly8FunctionIFvPNS_28AsyncSocketObserverInterfaceEPNS_11AsyncSocketEEEC2EOS6_.exit.i.i.i, label %for.body

_ZN5folly8FunctionIFvPNS_28AsyncSocketObserverInterfaceEPNS_11AsyncSocketEEEC2EOS6_.exit.i.i.i: ; preds = %for.body, %cleanup.done24
  call void @llvm.lifetime.start.p0(i64 8, ptr nonnull %agg.tmp.i)
  %obj_.i = getelementptr inbounds i8, ptr %this, i64 1032
  %8 = load ptr, ptr %obj_.i, align 8, !tbaa !162
  call void @llvm.lifetime.start.p0(i64 64, ptr nonnull %ref.tmp.i) #41
  store ptr null, ptr %ref.tmp.i, align 16, !tbaa !142
  %call_.i.i.i = getelementptr inbounds i8, ptr %ref.tmp.i, i64 48
  store ptr @_ZN5folly6detail8function14FunctionTraitsIFvPNS_21ObserverContainerBaseINS_28AsyncSocketObserverInterfaceENS_11AsyncSocketENS_34ObserverContainerBasePolicyDefaultINS4_6EventsELm32EEEE12ObserverBaseEPS5_EE10uninitCallESB_SC_RNS1_4DataE, ptr %call_.i.i.i, align 16, !tbaa !163
  %exec_.i.i.i = getelementptr inbounds i8, ptr %ref.tmp.i, i64 56
  store ptr null, ptr %exec_.i.i.i, align 8, !tbaa !165
  %call3.i.i2.i = invoke noalias noundef nonnull dereferenceable(64) ptr @_Znwm(i64 noundef 64) #42
          to label %invoke.cont.i unwind label %terminate.lpad.i

invoke.cont.i:                                    ; preds = %_ZN5folly8FunctionIFvPNS_28AsyncSocketObserverInterfaceEPNS_11AsyncSocketEEEC2EOS6_.exit.i.i.i
  %observerContainer_.i = getelementptr inbounds i8, ptr %this, i64 1024
  %call_.i.i.i.i = getelementptr inbounds i8, ptr %call3.i.i2.i, i64 48
  store ptr @"_ZN5folly6detail8function14FunctionTraitsIFvPNS_28AsyncSocketObserverInterfaceEPNS_11AsyncSocketEEE9callSmallIZNS5_20invokeConnectAttemptEvE3$_0EEvS4_S6_RNS1_4DataE", ptr %call_.i.i.i.i, align 16, !tbaa !166
  %exec_.i8.i.i.i = getelementptr inbounds i8, ptr %call3.i.i2.i, i64 56
  store ptr @_ZN5folly6detail8function20DispatchSmallTrivial5exec_ILm16EEEmNS1_2OpEPNS1_4DataES6_, ptr %exec_.i8.i.i.i, align 8, !tbaa !168
  store ptr null, ptr %call3.i.i2.i, align 1
  store ptr %call3.i.i2.i, ptr %ref.tmp.i, align 16, !tbaa !142
  store ptr @_ZN5folly6detail8function14FunctionTraitsIFvPNS_21ObserverContainerBaseINS_28AsyncSocketObserverInterfaceENS_11AsyncSocketENS_34ObserverContainerBasePolicyDefaultINS4_6EventsELm32EEEE12ObserverBaseEPS5_EE7callBigINS_8FunctionIFvPS4_SC_EEEEEvSB_SC_RNS1_4DataE, ptr %call_.i.i.i, align 16, !tbaa !163
  store ptr @_ZN5folly6detail8function11DispatchBig4execINS_8FunctionIFvPNS_28AsyncSocketObserverInterfaceEPNS_11AsyncSocketEEEEEEmNS1_2OpEPNS1_4DataESD_, ptr %exec_.i.i.i, align 8, !tbaa !165
  store i8 0, ptr %agg.tmp.i, align 4, !tbaa !142
  %hasValue.i.i.i = getelementptr inbounds i8, ptr %agg.tmp.i, i64 4
  store i8 0, ptr %hasValue.i.i.i, align 4, !tbaa !169
  call void @_ZN5folly21ObserverContainerBaseINS_28AsyncSocketObserverInterfaceENS_11AsyncSocketENS_34ObserverContainerBasePolicyDefaultINS1_6EventsELm32EEEE25invokeInterfaceMethodImplEPS2_ONS_8FunctionIFvPNS6_12ObserverBaseES7_EEENS_8OptionalIS4_EE(ptr noundef nonnull align 8 dereferenceable(8) %observerContainer_.i, ptr noundef %8, ptr noundef nonnull align 16 dereferenceable(64) %ref.tmp.i, ptr noundef nonnull %agg.tmp.i) #41
  %9 = load ptr, ptr %exec_.i.i.i, align 8, !tbaa !165
  %tobool.not.i.i.i = icmp eq ptr %9, null
  br i1 %tobool.not.i.i.i, label %if.end, label %if.end.i.i.i

if.end.i.i.i:                                     ; preds = %invoke.cont.i
  %call.i.i.i = call noundef i64 %9(i32 noundef 1, ptr noundef nonnull %ref.tmp.i, ptr noundef null) #41
  br label %if.end

terminate.lpad.i:                                 ; preds = %_ZN5folly8FunctionIFvPNS_28AsyncSocketObserverInterfaceEPNS_11AsyncSocketEEEC2EOS6_.exit.i.i.i
  %10 = landingpad { ptr, i32 }
          catch ptr null
  %11 = extractvalue { ptr, i32 } %10, 0
  call void @__clang_call_terminate(ptr %11) #43
  unreachable

if.end:                                           ; preds = %if.end.i.i.i, %invoke.cont.i
  call void @llvm.lifetime.end.p0(i64 64, ptr nonnull %ref.tmp.i) #41
  call void @llvm.lifetime.end.p0(i64 8, ptr nonnull %agg.tmp.i)
  ret void
}